target datalayout = "e-m:e-p270:32:32-p271:32:32-p272:64:64-i64:64-i128:128-f80:128-n8:16:32:64-S128"
target triple = "x86_64-pc-linux-gnu"

%struct.SDL_AtomicInt = type { i32 }
%struct.SDL_JoystickDriver = type { ptr, ptr, ptr, ptr, ptr, ptr, ptr, ptr, ptr, ptr, ptr, ptr, ptr, ptr, ptr, ptr, ptr, ptr, ptr, ptr, ptr }

@SDL_joysticks_initialized = internal global i8 0, align 1
@SDL_joystick_lock_pending = internal global %struct.SDL_AtomicInt zeroinitializer, align 4
@SDL_joystick_lock = internal global ptr null, align 8
@SDL_joysticks_locked = internal global i32 0, align 4
@SDL_joystick_drivers = internal global [3 x ptr] [ptr @SDL_HIDAPI_JoystickDriver, ptr @SDL_LINUX_JoystickDriver, ptr @SDL_VIRTUAL_JoystickDriver], align 16
@.str.1 = private unnamed_addr constant [32 x i8] c"That operation is not supported\00", align 1
@.str.43 = private unnamed_addr constant [22 x i8] c"Joystick %u not found\00", align 1

; Function Attrs: nounwind uwtable
define hidden void @SDL_AssertJoysticksLocked() #0 {
  br label %1

1:                                                ; preds = %0
  br label %2

2:                                                ; preds = %1
  ret void
}

; Function Attrs: nounwind uwtable
define hidden void @SDL_UnlockJoysticks_REAL() #0 {
  %1 = alloca i8, align 1
  %2 = alloca ptr, align 8
  call void @llvm.lifetime.start.p0(i64 1, ptr %1) #7
  store i8 0, ptr %1, align 1
  %3 = load i32, ptr @SDL_joysticks_locked, align 4
  %4 = add nsw i32 %3, -1
  store i32 %4, ptr @SDL_joysticks_locked, align 4
  %5 = load i8, ptr @SDL_joysticks_initialized, align 1, !range !3, !noundef !4
  %6 = trunc i8 %5 to i1
  br i1 %6, label %15, label %7

7:                                                ; preds = %0
  %8 = load i32, ptr @SDL_joysticks_locked, align 4
  %9 = icmp ne i32 %8, 0
  br i1 %9, label %14, label %10

10:                                               ; preds = %7
  %11 = call i32 @SDL_GetAtomicInt_REAL(ptr noundef @SDL_joystick_lock_pending)
  %12 = icmp eq i32 %11, 0
  br i1 %12, label %13, label %14

13:                                               ; preds = %10
  store i8 1, ptr %1, align 1
  br label %14

14:                                               ; preds = %13, %10, %7
  br label %15

15:                                               ; preds = %14, %0
  %16 = load i8, ptr %1, align 1, !range !3, !noundef !4
  %17 = trunc i8 %16 to i1
  br i1 %17, label %18, label %24

18:                                               ; preds = %15
  call void @llvm.lifetime.start.p0(i64 8, ptr %2) #7
  %19 = load ptr, ptr @SDL_joystick_lock, align 8
  store ptr %19, ptr %2, align 8
  %20 = load ptr, ptr %2, align 8
  call void @SDL_LockMutex_REAL(ptr noundef %20)
  %21 = load ptr, ptr @SDL_joystick_lock, align 8
  call void @SDL_UnlockMutex_REAL(ptr noundef %21)
  store ptr null, ptr @SDL_joystick_lock, align 8
  %22 = load ptr, ptr %2, align 8
  call void @SDL_UnlockMutex_REAL(ptr noundef %22)
  %23 = load ptr, ptr %2, align 8
  call void @SDL_DestroyMutex_REAL(ptr noundef %23)
  call void @llvm.lifetime.end.p0(i64 8, ptr %2) #7
  br label %26

24:                                               ; preds = %15
  %25 = load ptr, ptr @SDL_joystick_lock, align 8
  call void @SDL_UnlockMutex_REAL(ptr noundef %25)
  br label %26

26:                                               ; preds = %24, %18
  call void @llvm.lifetime.end.p0(i64 1, ptr %1) #7
  ret void
}

; Function Attrs: nounwind uwtable
define internal zeroext i1 @SDL_GetDriverAndJoystickIndex(i32 noundef %0, ptr noundef %1, ptr noundef %2) #0 {
  %4 = alloca i1, align 1
  %5 = alloca i32, align 4
  %6 = alloca ptr, align 8
  %7 = alloca ptr, align 8
  %8 = alloca i32, align 4
  %9 = alloca i32, align 4
  %10 = alloca i32, align 4
  %11 = alloca i32, align 4
  %12 = alloca i32, align 4
  store i32 %0, ptr %5, align 4
  store ptr %1, ptr %6, align 8
  store ptr %2, ptr %7, align 8
  call void @llvm.lifetime.start.p0(i64 4, ptr %8) #7
  call void @llvm.lifetime.start.p0(i64 4, ptr %9) #7
  call void @llvm.lifetime.start.p0(i64 4, ptr %10) #7
  call void @SDL_AssertJoysticksLocked()
  %13 = load i32, ptr %5, align 4
  %14 = icmp ugt i32 %13, 0
  br i1 %14, label %15, label %64

15:                                               ; preds = %3
  store i32 0, ptr %8, align 4
  br label %16

16:                                               ; preds = %60, %15
  %17 = load i32, ptr %8, align 4
  %18 = sext i32 %17 to i64
  %19 = icmp ult i64 %18, 3
  br i1 %19, label %20, label %63

20:                                               ; preds = %16
  %21 = load i32, ptr %8, align 4
  %22 = sext i32 %21 to i64
  %23 = getelementptr inbounds [3 x ptr], ptr @SDL_joystick_drivers, i64 0, i64 %22
  %24 = load ptr, ptr %23, align 8
  %25 = getelementptr inbounds nuw %struct.SDL_JoystickDriver, ptr %24, i32 0, i32 1
  %26 = load ptr, ptr %25, align 8
  %27 = call i32 %26()
  store i32 %27, ptr %9, align 4
  store i32 0, ptr %10, align 4
  br label %28

28:                                               ; preds = %56, %20
  %29 = load i32, ptr %10, align 4
  %30 = load i32, ptr %9, align 4
  %31 = icmp slt i32 %29, %30
  br i1 %31, label %32, label %59

32:                                               ; preds = %28
  call void @llvm.lifetime.start.p0(i64 4, ptr %11) #7
  %33 = load i32, ptr %8, align 4
  %34 = sext i32 %33 to i64
  %35 = getelementptr inbounds [3 x ptr], ptr @SDL_joystick_drivers, i64 0, i64 %34
  %36 = load ptr, ptr %35, align 8
  %37 = getelementptr inbounds nuw %struct.SDL_JoystickDriver, ptr %36, i32 0, i32 10
  %38 = load ptr, ptr %37, align 8
  %39 = load i32, ptr %10, align 4
  %40 = call i32 %38(i32 noundef %39)
  store i32 %40, ptr %11, align 4
  %41 = load i32, ptr %11, align 4
  %42 = load i32, ptr %5, align 4
  %43 = icmp eq i32 %41, %42
  br i1 %43, label %44, label %52

44:                                               ; preds = %32
  %45 = load i32, ptr %8, align 4
  %46 = sext i32 %45 to i64
  %47 = getelementptr inbounds [3 x ptr], ptr @SDL_joystick_drivers, i64 0, i64 %46
  %48 = load ptr, ptr %47, align 8
  %49 = load ptr, ptr %6, align 8
  store ptr %48, ptr %49, align 8
  %50 = load i32, ptr %10, align 4
  %51 = load ptr, ptr %7, align 8
  store i32 %50, ptr %51, align 4
  store i1 true, ptr %4, align 1
  store i32 1, ptr %12, align 4
  br label %53

52:                                               ; preds = %32
  store i32 0, ptr %12, align 4
  br label %53

53:                                               ; preds = %52, %44
  call void @llvm.lifetime.end.p0(i64 4, ptr %11) #7
  %54 = load i32, ptr %12, align 4
  switch i32 %54, label %67 [
    i32 0, label %55
  ]

55:                                               ; preds = %53
  br label %56

56:                                               ; preds = %55
  %57 = load i32, ptr %10, align 4
  %58 = add nsw i32 %57, 1
  store i32 %58, ptr %10, align 4
  br label %28, !llvm.loop !15

59:                                               ; preds = %28
  br label %60

60:                                               ; preds = %59
  %61 = load i32, ptr %8, align 4
  %62 = add nsw i32 %61, 1
  store i32 %62, ptr %8, align 4
  br label %16, !llvm.loop !16

63:                                               ; preds = %16
  br label %64

64:                                               ; preds = %63, %3
  %65 = load i32, ptr %5, align 4
  %66 = call zeroext i1 (ptr, ...) @SDL_SetError_REAL(ptr noundef @.str.43, i32 noundef %65)
  store i1 false, ptr %4, align 1
  store i32 1, ptr %12, align 4
  br label %67

67:                                               ; preds = %64, %53
  call void @llvm.lifetime.end.p0(i64 4, ptr %10) #7
  call void @llvm.lifetime.end.p0(i64 4, ptr %9) #7
  call void @llvm.lifetime.end.p0(i64 4, ptr %8) #7
  %68 = load i1, ptr %4, align 1
  ret i1 %68
}

; Function Attrs: nounwind uwtable
define hidden void @SDL_LockJoysticks_REAL() #0 {
  %1 = call i32 @SDL_AddAtomicInt_REAL(ptr noundef @SDL_joystick_lock_pending, i32 noundef 1)
  %2 = load ptr, ptr @SDL_joystick_lock, align 8
  call void @SDL_LockMutex_REAL(ptr noundef %2)
  %3 = call i32 @SDL_AddAtomicInt_REAL(ptr noundef @SDL_joystick_lock_pending, i32 noundef -1)
  %4 = load i32, ptr @SDL_joysticks_locked, align 4
  %5 = add nsw i32 %4, 1
  store i32 %5, ptr @SDL_joysticks_locked, align 4
  ret void
}

; Function Attrs: nounwind uwtable
define hidden ptr @SDL_GetJoystickPathForID_REAL(i32 noundef %0) #0 {
  %2 = alloca i32, align 4
  %3 = alloca ptr, align 8
  %4 = alloca i32, align 4
  %5 = alloca ptr, align 8
  store i32 %0, ptr %2, align 4
  call void @llvm.lifetime.start.p0(i64 8, ptr %3) #7
  call void @llvm.lifetime.start.p0(i64 4, ptr %4) #7
  call void @llvm.lifetime.start.p0(i64 8, ptr %5) #7
  store ptr null, ptr %5, align 8
  call void @SDL_LockJoysticks_REAL()
  %6 = load i32, ptr %2, align 4
  %7 = call zeroext i1 @SDL_GetDriverAndJoystickIndex(i32 noundef %6, ptr noundef %3, ptr noundef %4)
  br i1 %7, label %8, label %15

8:                                                ; preds = %1
  %9 = load ptr, ptr %3, align 8
  %10 = getelementptr inbounds nuw %struct.SDL_JoystickDriver, ptr %9, i32 0, i32 5
  %11 = load ptr, ptr %10, align 8
  %12 = load i32, ptr %4, align 4
  %13 = call ptr %11(i32 noundef %12)
  %14 = call ptr @SDL_GetPersistentString(ptr noundef %13)
  store ptr %14, ptr %5, align 8
  br label %15

15:                                               ; preds = %8, %1
  call void @SDL_UnlockJoysticks_REAL()
  %16 = load ptr, ptr %5, align 8
  %17 = icmp ne ptr %16, null
  br i1 %17, label %20, label %18

18:                                               ; preds = %15
  %19 = call zeroext i1 (ptr, ...) @SDL_SetError_REAL(ptr noundef @.str.1)
  br label %20

20:                                               ; preds = %18, %15
  %21 = load ptr, ptr %5, align 8
  call void @llvm.lifetime.end.p0(i64 8, ptr %5) #7
  call void @llvm.lifetime.end.p0(i64 4, ptr %4) #7
  call void @llvm.lifetime.end.p0(i64 8, ptr %3) #7
  ret ptr %21
}