; Function Attrs: nounwind uwtable
define hidden ptr @SDL_GetJoystickPathForID_REAL(i32 noundef %0) local_unnamed_addr #1 {
  %2 = tail call i32 @SDL_AddAtomicInt_REAL(ptr noundef nonnull @SDL_joystick_lock_pending, i32 noundef 1) #13
  %3 = load ptr, ptr @SDL_joystick_lock, align 8
  tail call void @SDL_LockMutex_REAL(ptr noundef %3) #13
  %4 = tail call i32 @SDL_AddAtomicInt_REAL(ptr noundef nonnull @SDL_joystick_lock_pending, i32 noundef -1) #13
  %5 = load i32, ptr @SDL_joysticks_locked, align 4
  %6 = add nsw i32 %5, 1
  store i32 %6, ptr @SDL_joysticks_locked, align 4
  %.not.i = icmp eq i32 %0, 0
  br i1 %.not.i, label %SDL_GetDriverAndJoystickIndex.exit, label %.preheader.i

.preheader.i:                                     ; preds = %1, %._crit_edge.i
  %indvars.iv.i = phi i64 [ %indvars.iv.next.i, %._crit_edge.i ], [ 0, %1 ]
  %7 = getelementptr inbounds nuw [3 x ptr], ptr @SDL_joystick_drivers, i64 0, i64 %indvars.iv.i
  %8 = load ptr, ptr %7, align 8
  %9 = getelementptr inbounds nuw i8, ptr %8, i64 8
  %10 = load ptr, ptr %9, align 8
  %11 = tail call i32 %10() #13
  %12 = icmp sgt i32 %11, 0
  br i1 %12, label %.lr.ph.i, label %._crit_edge.i

.lr.ph.i:                                         ; preds = %.preheader.i
  %13 = getelementptr inbounds nuw i8, ptr %8, i64 80
  br label %14

14:                                               ; preds = %.critedge.i, %.lr.ph.i
  %.01824.i = phi i32 [ 0, %.lr.ph.i ], [ %17, %.critedge.i ]
  %15 = load ptr, ptr %13, align 8
  %16 = tail call i32 %15(i32 noundef %.01824.i) #13
  %.not22.i = icmp eq i32 %16, %0
  br i1 %.not22.i, label %19, label %.critedge.i

.critedge.i:                                      ; preds = %14
  %17 = add nuw nsw i32 %.01824.i, 1
  %exitcond.not.i = icmp eq i32 %17, %11
  br i1 %exitcond.not.i, label %._crit_edge.i, label %14, !llvm.loop !13

._crit_edge.i:                                    ; preds = %.critedge.i, %.preheader.i
  %indvars.iv.next.i = add nuw nsw i64 %indvars.iv.i, 1
  %exitcond29.not.i = icmp eq i64 %indvars.iv.next.i, 3
  br i1 %exitcond29.not.i, label %SDL_GetDriverAndJoystickIndex.exit, label %.preheader.i, !llvm.loop !14

SDL_GetDriverAndJoystickIndex.exit:               ; preds = %._crit_edge.i, %1
  %18 = tail call zeroext i1 (ptr, ...) @SDL_SetError_REAL(ptr noundef nonnull @.str.43, i32 noundef %0) #13
  br label %24

19:                                               ; preds = %14
  %20 = getelementptr inbounds nuw i8, ptr %8, i64 40
  %21 = load ptr, ptr %20, align 8
  %22 = tail call ptr %21(i32 noundef %.01824.i) #13
  %23 = tail call ptr @SDL_GetPersistentString(ptr noundef %22) #13
  br label %24

24:                                               ; preds = %SDL_GetDriverAndJoystickIndex.exit, %19
  %.0 = phi ptr [ %23, %19 ], [ null, %SDL_GetDriverAndJoystickIndex.exit ]
  %25 = load i32, ptr @SDL_joysticks_locked, align 4
  %26 = add nsw i32 %25, -1
  store i32 %26, ptr @SDL_joysticks_locked, align 4
  %.b4.i = load i1, ptr @SDL_joysticks_initialized, align 1
  %27 = icmp ne i32 %26, 0
  %or.cond.i = select i1 %.b4.i, i1 true, i1 %27
  br i1 %or.cond.i, label %.critedge.i2, label %28

28:                                               ; preds = %24
  %29 = tail call i32 @SDL_GetAtomicInt_REAL(ptr noundef nonnull @SDL_joystick_lock_pending) #13
  %30 = icmp eq i32 %29, 0
  br i1 %30, label %31, label %.critedge.i2

31:                                               ; preds = %28
  %32 = load ptr, ptr @SDL_joystick_lock, align 8
  tail call void @SDL_LockMutex_REAL(ptr noundef %32) #13
  %33 = load ptr, ptr @SDL_joystick_lock, align 8
  tail call void @SDL_UnlockMutex_REAL(ptr noundef %33) #13
  store ptr null, ptr @SDL_joystick_lock, align 8
  tail call void @SDL_UnlockMutex_REAL(ptr noundef %32) #13
  tail call void @SDL_DestroyMutex_REAL(ptr noundef %32) #13
  br label %SDL_UnlockJoysticks_REAL.exit

.critedge.i2:                                     ; preds = %28, %24
  %34 = load ptr, ptr @SDL_joystick_lock, align 8
  tail call void @SDL_UnlockMutex_REAL(ptr noundef %34) #13
  br label %SDL_UnlockJoysticks_REAL.exit

SDL_UnlockJoysticks_REAL.exit:                    ; preds = %31, %.critedge.i2
  %.not = icmp eq ptr %.0, null
  br i1 %.not, label %35, label %37

35:                                               ; preds = %SDL_UnlockJoysticks_REAL.exit
  %36 = tail call zeroext i1 (ptr, ...) @SDL_SetError_REAL(ptr noundef nonnull @.str.1) #13
  br label %37

37:                                               ; preds = %35, %SDL_UnlockJoysticks_REAL.exit
  ret ptr %.0
}